Certificate:
    Data:
        Version: 3 (0x2)
        Serial Number: 1 (0x1)
    Signature Algorithm: sha256WithRSAEncryption
        Issuer: CN=devcert
        Validity
            Not Before: Apr 25 00:27:57 2020 GMT
            Not After : Jul 29 00:27:57 2022 GMT
        Subject: CN=localhost
        Subject Public Key Info:
            Public Key Algorithm: rsaEncryption
                Public-Key: (2048 bit)
                Modulus:
                    00:b5:1c:cc:aa:b3:2b:d5:35:f9:11:18:4b:ae:a1:
                    50:31:5b:cb:57:c1:8d:71:80:58:c1:5e:94:cd:a7:
                    d6:2b:a4:0c:97:a0:27:3a:0e:62:1a:56:29:97:29:
                    e5:53:f3:34:50:73:11:e3:3e:18:41:15:44:ab:1a:
                    65:94:c9:5f:95:0d:b8:4d:3c:55:0b:0e:a6:00:da:
                    8f:45:fe:f4:59:17:22:9e:74:8d:a5:67:24:6a:3f:
                    7b:0b:ae:ab:f6:1b:a0:97:d0:a2:59:f5:32:eb:9c:
                    2c:73:65:5c:57:16:0e:8a:74:fe:42:69:01:35:6a:
                    2e:fc:a2:e9:cf:c9:b7:d9:09:20:80:0b:8d:54:19:
                    d4:a7:cc:3f:c9:94:99:4e:b3:dd:36:2b:a3:c6:d7:
                    13:29:85:51:1a:ef:ca:61:a0:6e:ab:a5:ce:0f:c1:
                    01:c7:4f:46:b4:80:ab:ac:9f:c4:2c:1d:56:67:be:
                    f3:fd:bd:f1:8e:f1:d9:2b:97:b4:29:43:63:99:cb:
                    34:de:41:cf:19:6b:24:00:0f:0c:1b:4d:1e:8c:c0:
                    9e:a6:bc:53:f5:09:82:07:73:fa:25:aa:4e:65:8a:
                    9c:3f:9a:37:75:a6:5c:5b:6c:c2:63:a3:e3:3e:15:
                    f1:33:da:a5:f8:02:b0:35:5c:ef:d9:20:28:7f:af:
                    3b:91
                Exponent: 65537 (0x10001)
        X509v3 extensions:
            X509v3 Basic Constraints: critical
                CA:FALSE
            X509v3 Subject Key Identifier: 
                57:32:E8:6E:E7:0A:FF:AB:ED:A3:FA:A5:7A:BF:1E:B6:31:DD:17:D9
            X509v3 Authority Key Identifier: 
                keyid:4E:97:64:DA:B8:6F:D3:1B:37:EF:8D:09:AB:1A:A1:63:FE:67:B5:B7
                DirName:/CN=devcert
                serial:B8:1D:A7:19:C0:55:78:1A

            X509v3 Key Usage: critical
                Digital Signature, Key Encipherment
            X509v3 Extended Key Usage: 
                TLS Web Server Authentication
            X509v3 Subject Alternative Name: 
                DNS:localhost, DNS:*.localhost
    Signature Algorithm: sha256WithRSAEncryption
         74:38:d9:1c:da:81:f7:ec:dc:6f:ae:cb:1e:88:ea:7c:97:cf:
         1d:36:83:2a:71:ee:8c:93:2d:75:f6:cd:a4:0c:0f:98:cd:bf:
         8a:ef:5d:72:23:74:9a:2b:cd:27:59:5e:9b:5e:a6:31:57:52:
         bc:2e:30:4b:ea:e0:dd:2f:07:4e:e7:e9:2a:43:37:9f:69:63:
         14:6c:34:ac:60:e6:78:51:71:d6:f2:c5:55:2d:2e:c4:c5:2e:
         85:a8:09:5d:43:31:d6:7b:cc:e4:5e:08:28:2c:f9:d0:4e:75:
         ce:e0:28:07:63:20:c9:a3:6b:7b:85:46:23:f5:6d:17:98:80:
         0e:db:58:04:35:a9:dd:9e:42:f0:8b:44:be:d4:30:95:b5:19:
         82:ca:27:67:e6:6f:3d:b3:91:2e:09:74:bc:15:ea:c1:36:64:
         86:44:7b:ac:96:8d:1f:f8:60:f4:ca:a6:4a:c2:8c:71:5a:ff:
         e5:8c:ba:60:7c:92:57:53:1b:43:c6:d3:51:b6:c8:7a:2b:46:
         32:df:3f:d1:79:7d:cb:d1:f8:f8:2c:f0:0e:83:07:bd:9d:ce:
         63:0b:2a:4b:33:52:f4:4a:c8:79:b3:08:57:73:74:4d:91:a6:
         65:37:0f:69:a6:4a:be:b4:9c:2f:cd:c7:e2:58:ab:8b:db:bf:
         a3:e5:7e:06
-----BEGIN CERTIFICATE-----
MIIDXjCCAkagAwIBAgIBATANBgkqhkiG9w0BAQsFADASMRAwDgYDVQQDDAdkZXZj
ZXJ0MB4XDTIwMDQyNTAwMjc1N1oXDTIyMDcyOTAwMjc1N1owFDESMBAGA1UEAwwJ
bG9jYWxob3N0MIIBIjANBgkqhkiG9w0BAQEFAAOCAQ8AMIIBCgKCAQEAtRzMqrMr
1TX5ERhLrqFQMVvLV8GNcYBYwV6UzafWK6QMl6AnOg5iGlYplynlU/M0UHMR4z4Y
QRVEqxpllMlflQ24TTxVCw6mANqPRf70WRcinnSNpWckaj97C66r9hugl9CiWfUy
65wsc2VcVxYOinT+QmkBNWou/KLpz8m32QkggAuNVBnUp8w/yZSZTrPdNiujxtcT
KYVRGu/KYaBuq6XOD8EBx09GtICrrJ/ELB1WZ77z/b3xjvHZK5e0KUNjmcs03kHP
GWskAA8MG00ejMCeprxT9QmCB3P6JapOZYqcP5o3daZcW2zCY6PjPhXxM9ql+AKw
NVzv2SAof687kQIDAQABo4G8MIG5MAwGA1UdEwEB/wQCMAAwHQYDVR0OBBYEFFcy
6G7nCv+r7aP6pXq/HrYx3RfZMEIGA1UdIwQ7MDmAFE6XZNq4b9MbN++NCasaoWP+
Z7W3oRakFDASMRAwDgYDVQQDDAdkZXZjZXJ0ggkAuB2nGcBVeBowDgYDVR0PAQH/
BAQDAgWgMBMGA1UdJQQMMAoGCCsGAQUFBwMBMCEGA1UdEQQaMBiCCWxvY2FsaG9z
dIILKi5sb2NhbGhvc3QwDQYJKoZIhvcNAQELBQADggEBAHQ42Rzagffs3G+uyx6I
6nyXzx02gypx7oyTLXX2zaQMD5jNv4rvXXIjdJorzSdZXptepjFXUrwuMEvq4N0v
B07n6SpDN59pYxRsNKxg5nhRcdbyxVUtLsTFLoWoCV1DMdZ7zOReCCgs+dBOdc7g
KAdjIMmja3uFRiP1bReYgA7bWAQ1qd2eQvCLRL7UMJW1GYLKJ2fmbz2zkS4JdLwV
6sE2ZIZEe6yWjR/4YPTKpkrCjHFa/+WMumB8kldTG0PG01G2yHorRjLfP9F5fcvR
+Pgs8A6DB72dzmMLKkszUvRKyHmzCFdzdE2RpmU3D2mmSr60nC/Nx+JYq4vbv6Pl
fgY=
-----END CERTIFICATE-----
